
main.elf:     file format elf32-littleriscv


Disassembly of section .text:

00000000 <entry>:
       0:	ff010113          	addi	sp,sp,-16
       4:	00112623          	sw	ra,12(sp)
       8:	00812423          	sw	s0,8(sp)
       c:	01010413          	addi	s0,sp,16
      10:	00120137          	lui	sp,0x120
      14:	ffc10113          	addi	sp,sp,-4 # 11fffc <_end+0x1f7fc>
      18:	018000ef          	jal	ra,30 <main>
      1c:	00000013          	nop
      20:	00c12083          	lw	ra,12(sp)
      24:	00812403          	lw	s0,8(sp)
      28:	01010113          	addi	sp,sp,16
      2c:	00008067          	ret

00000030 <main>:
      30:	fe010113          	addi	sp,sp,-32
      34:	00112e23          	sw	ra,28(sp)
      38:	00812c23          	sw	s0,24(sp)
      3c:	02010413          	addi	s0,sp,32
      40:	188010ef          	jal	ra,11c8 <initled>
      44:	118010ef          	jal	ra,115c <initbcd>
      48:	0b8010ef          	jal	ra,1100 <getch>
      4c:	00050793          	mv	a5,a0
      50:	fef407a3          	sb	a5,-17(s0)
      54:	fef44783          	lbu	a5,-17(s0)
      58:	00079a63          	bnez	a5,6c <main+0x3c>
      5c:	0a4010ef          	jal	ra,1100 <getch>
      60:	00050793          	mv	a5,a0
      64:	fef407a3          	sb	a5,-17(s0)
      68:	fedff06f          	j	54 <main+0x24>
      6c:	00000013          	nop
      70:	5b9000ef          	jal	ra,e28 <vga_init>
      74:	00100517          	auipc	a0,0x100
      78:	ff450513          	addi	a0,a0,-12 # 100068 <hello>
      7c:	024010ef          	jal	ra,10a0 <putstr>
      80:	00d00513          	li	a0,13
      84:	641000ef          	jal	ra,ec4 <putch>
      88:	00100797          	auipc	a5,0x100
      8c:	13878793          	addi	a5,a5,312 # 1001c0 <pos>
      90:	0007a023          	sw	zero,0(a5)
      94:	06c010ef          	jal	ra,1100 <getch>
      98:	00050793          	mv	a5,a0
      9c:	fef407a3          	sb	a5,-17(s0)
      a0:	fef44783          	lbu	a5,-17(s0)
      a4:	0e078a63          	beqz	a5,198 <main+0x168>
      a8:	fef44703          	lbu	a4,-17(s0)
      ac:	00d00793          	li	a5,13
      b0:	06f71263          	bne	a4,a5,114 <main+0xe4>
      b4:	00100797          	auipc	a5,0x100
      b8:	10c78793          	addi	a5,a5,268 # 1001c0 <pos>
      bc:	0007a783          	lw	a5,0(a5)
      c0:	04078263          	beqz	a5,104 <main+0xd4>
      c4:	00100797          	auipc	a5,0x100
      c8:	0fc78793          	addi	a5,a5,252 # 1001c0 <pos>
      cc:	0007a783          	lw	a5,0(a5)
      d0:	00100717          	auipc	a4,0x100
      d4:	07070713          	addi	a4,a4,112 # 100140 <buffer>
      d8:	00f707b3          	add	a5,a4,a5
      dc:	00078023          	sb	zero,0(a5)
      e0:	00a00513          	li	a0,10
      e4:	5e1000ef          	jal	ra,ec4 <putch>
      e8:	00100797          	auipc	a5,0x100
      ec:	0d878793          	addi	a5,a5,216 # 1001c0 <pos>
      f0:	0007a783          	lw	a5,0(a5)
      f4:	00078593          	mv	a1,a5
      f8:	00100517          	auipc	a0,0x100
      fc:	04850513          	addi	a0,a0,72 # 100140 <buffer>
     100:	0a8000ef          	jal	ra,1a8 <exec_cmd>
     104:	00100797          	auipc	a5,0x100
     108:	0bc78793          	addi	a5,a5,188 # 1001c0 <pos>
     10c:	0007a023          	sw	zero,0(a5)
     110:	07c0006f          	j	18c <main+0x15c>
     114:	fef44703          	lbu	a4,-17(s0)
     118:	00800793          	li	a5,8
     11c:	04f71063          	bne	a4,a5,15c <main+0x12c>
     120:	00100797          	auipc	a5,0x100
     124:	0a078793          	addi	a5,a5,160 # 1001c0 <pos>
     128:	0007a783          	lw	a5,0(a5)
     12c:	02078263          	beqz	a5,150 <main+0x120>
     130:	00100797          	auipc	a5,0x100
     134:	09078793          	addi	a5,a5,144 # 1001c0 <pos>
     138:	0007a783          	lw	a5,0(a5)
     13c:	fff78713          	addi	a4,a5,-1
     140:	00100797          	auipc	a5,0x100
     144:	08078793          	addi	a5,a5,128 # 1001c0 <pos>
     148:	00e7a023          	sw	a4,0(a5)
     14c:	0400006f          	j	18c <main+0x15c>
     150:	01400513          	li	a0,20
     154:	571000ef          	jal	ra,ec4 <putch>
     158:	0340006f          	j	18c <main+0x15c>
     15c:	00100797          	auipc	a5,0x100
     160:	06478793          	addi	a5,a5,100 # 1001c0 <pos>
     164:	0007a783          	lw	a5,0(a5)
     168:	00178693          	addi	a3,a5,1
     16c:	00100717          	auipc	a4,0x100
     170:	05470713          	addi	a4,a4,84 # 1001c0 <pos>
     174:	00d72023          	sw	a3,0(a4)
     178:	00100717          	auipc	a4,0x100
     17c:	fc870713          	addi	a4,a4,-56 # 100140 <buffer>
     180:	00f707b3          	add	a5,a4,a5
     184:	fef44703          	lbu	a4,-17(s0)
     188:	00e78023          	sb	a4,0(a5)
     18c:	fef44783          	lbu	a5,-17(s0)
     190:	00078513          	mv	a0,a5
     194:	531000ef          	jal	ra,ec4 <putch>
     198:	769000ef          	jal	ra,1100 <getch>
     19c:	00050793          	mv	a5,a0
     1a0:	fef407a3          	sb	a5,-17(s0)
     1a4:	efdff06f          	j	a0 <main+0x70>

000001a8 <exec_cmd>:
     1a8:	f5010113          	addi	sp,sp,-176
     1ac:	0a112623          	sw	ra,172(sp)
     1b0:	0a812423          	sw	s0,168(sp)
     1b4:	0b010413          	addi	s0,sp,176
     1b8:	f4a42e23          	sw	a0,-164(s0)
     1bc:	f4b42c23          	sw	a1,-168(s0)
     1c0:	00100597          	auipc	a1,0x100
     1c4:	e4058593          	addi	a1,a1,-448 # 100000 <_etext+0xfe6c0>
     1c8:	f5c42503          	lw	a0,-164(s0)
     1cc:	28c010ef          	jal	ra,1458 <strcmp>
     1d0:	00050793          	mv	a5,a0
     1d4:	00079a63          	bnez	a5,1e8 <exec_cmd+0x40>
     1d8:	00100517          	auipc	a0,0x100
     1dc:	e9050513          	addi	a0,a0,-368 # 100068 <hello>
     1e0:	6c1000ef          	jal	ra,10a0 <putstr>
     1e4:	3900006f          	j	574 <exec_cmd+0x3cc>
     1e8:	00100597          	auipc	a1,0x100
     1ec:	e2058593          	addi	a1,a1,-480 # 100008 <_etext+0xfe6c8>
     1f0:	f5c42503          	lw	a0,-164(s0)
     1f4:	264010ef          	jal	ra,1458 <strcmp>
     1f8:	00050793          	mv	a5,a0
     1fc:	00079c63          	bnez	a5,214 <exec_cmd+0x6c>
     200:	094010ef          	jal	ra,1294 <gettime>
     204:	00050793          	mv	a5,a0
     208:	00078513          	mv	a0,a5
     20c:	0b4010ef          	jal	ra,12c0 <puttime>
     210:	3640006f          	j	574 <exec_cmd+0x3cc>
     214:	00100597          	auipc	a1,0x100
     218:	dfc58593          	addi	a1,a1,-516 # 100010 <_etext+0xfe6d0>
     21c:	f5c42503          	lw	a0,-164(s0)
     220:	238010ef          	jal	ra,1458 <strcmp>
     224:	00050793          	mv	a5,a0
     228:	00079a63          	bnez	a5,23c <exec_cmd+0x94>
     22c:	3fd000ef          	jal	ra,e28 <vga_init>
     230:	01d00513          	li	a0,29
     234:	6f9000ef          	jal	ra,112c <setline>
     238:	33c0006f          	j	574 <exec_cmd+0x3cc>
     23c:	00100597          	auipc	a1,0x100
     240:	ddc58593          	addi	a1,a1,-548 # 100018 <_etext+0xfe6d8>
     244:	f5c42503          	lw	a0,-164(s0)
     248:	210010ef          	jal	ra,1458 <strcmp>
     24c:	00050793          	mv	a5,a0
     250:	00079a63          	bnez	a5,264 <exec_cmd+0xbc>
     254:	00100517          	auipc	a0,0x100
     258:	dcc50513          	addi	a0,a0,-564 # 100020 <_etext+0xfe6e0>
     25c:	645000ef          	jal	ra,10a0 <putstr>
     260:	3140006f          	j	574 <exec_cmd+0x3cc>
     264:	00100597          	auipc	a1,0x100
     268:	dd458593          	addi	a1,a1,-556 # 100038 <_etext+0xfe6f8>
     26c:	f5c42503          	lw	a0,-164(s0)
     270:	1e8010ef          	jal	ra,1458 <strcmp>
     274:	00050793          	mv	a5,a0
     278:	00079a63          	bnez	a5,28c <exec_cmd+0xe4>
     27c:	00100517          	auipc	a0,0x100
     280:	e4850513          	addi	a0,a0,-440 # 1000c4 <help_info>
     284:	61d000ef          	jal	ra,10a0 <putstr>
     288:	2ec0006f          	j	574 <exec_cmd+0x3cc>
     28c:	f5842703          	lw	a4,-168(s0)
     290:	00200793          	li	a5,2
     294:	06e7f463          	bgeu	a5,a4,2fc <exec_cmd+0x154>
     298:	00300613          	li	a2,3
     29c:	00100597          	auipc	a1,0x100
     2a0:	da458593          	addi	a1,a1,-604 # 100040 <_etext+0xfe700>
     2a4:	f5c42503          	lw	a0,-164(s0)
     2a8:	244010ef          	jal	ra,14ec <strncmp>
     2ac:	00050793          	mv	a5,a0
     2b0:	04079663          	bnez	a5,2fc <exec_cmd+0x154>
     2b4:	f5842703          	lw	a4,-168(s0)
     2b8:	00300793          	li	a5,3
     2bc:	00f71a63          	bne	a4,a5,2d0 <exec_cmd+0x128>
     2c0:	00100517          	auipc	a0,0x100
     2c4:	dcc50513          	addi	a0,a0,-564 # 10008c <err_argmiss>
     2c8:	5d9000ef          	jal	ra,10a0 <putstr>
     2cc:	2a80006f          	j	574 <exec_cmd+0x3cc>
     2d0:	f5c42783          	lw	a5,-164(s0)
     2d4:	00378793          	addi	a5,a5,3
     2d8:	00078513          	mv	a0,a5
     2dc:	398010ef          	jal	ra,1674 <a2u>
     2e0:	00050793          	mv	a5,a0
     2e4:	00078513          	mv	a0,a5
     2e8:	6a1000ef          	jal	ra,1188 <putbcd>
     2ec:	00100517          	auipc	a0,0x100
     2f0:	e2450513          	addi	a0,a0,-476 # 100110 <success>
     2f4:	5ad000ef          	jal	ra,10a0 <putstr>
     2f8:	27c0006f          	j	574 <exec_cmd+0x3cc>
     2fc:	f5842703          	lw	a4,-168(s0)
     300:	00500793          	li	a5,5
     304:	08e7f263          	bgeu	a5,a4,388 <exec_cmd+0x1e0>
     308:	00600613          	li	a2,6
     30c:	00100597          	auipc	a1,0x100
     310:	d3858593          	addi	a1,a1,-712 # 100044 <_etext+0xfe704>
     314:	f5c42503          	lw	a0,-164(s0)
     318:	1d4010ef          	jal	ra,14ec <strncmp>
     31c:	00050793          	mv	a5,a0
     320:	06079463          	bnez	a5,388 <exec_cmd+0x1e0>
     324:	f5842703          	lw	a4,-168(s0)
     328:	00600793          	li	a5,6
     32c:	00f71a63          	bne	a4,a5,340 <exec_cmd+0x198>
     330:	00100517          	auipc	a0,0x100
     334:	d5c50513          	addi	a0,a0,-676 # 10008c <err_argmiss>
     338:	569000ef          	jal	ra,10a0 <putstr>
     33c:	2380006f          	j	574 <exec_cmd+0x3cc>
     340:	f5c42783          	lw	a5,-164(s0)
     344:	00678793          	addi	a5,a5,6
     348:	00078513          	mv	a0,a5
     34c:	328010ef          	jal	ra,1674 <a2u>
     350:	fea42623          	sw	a0,-20(s0)
     354:	fec42703          	lw	a4,-20(s0)
     358:	00700793          	li	a5,7
     35c:	00e7fa63          	bgeu	a5,a4,370 <exec_cmd+0x1c8>
     360:	00100517          	auipc	a0,0x100
     364:	d4850513          	addi	a0,a0,-696 # 1000a8 <err_argill>
     368:	539000ef          	jal	ra,10a0 <putstr>
     36c:	2080006f          	j	574 <exec_cmd+0x3cc>
     370:	fec42503          	lw	a0,-20(s0)
     374:	6ad000ef          	jal	ra,1220 <ledon>
     378:	00100517          	auipc	a0,0x100
     37c:	d9850513          	addi	a0,a0,-616 # 100110 <success>
     380:	521000ef          	jal	ra,10a0 <putstr>
     384:	1f00006f          	j	574 <exec_cmd+0x3cc>
     388:	f5842703          	lw	a4,-168(s0)
     38c:	00600793          	li	a5,6
     390:	08e7f263          	bgeu	a5,a4,414 <exec_cmd+0x26c>
     394:	00700613          	li	a2,7
     398:	00100597          	auipc	a1,0x100
     39c:	cb458593          	addi	a1,a1,-844 # 10004c <_etext+0xfe70c>
     3a0:	f5c42503          	lw	a0,-164(s0)
     3a4:	148010ef          	jal	ra,14ec <strncmp>
     3a8:	00050793          	mv	a5,a0
     3ac:	06079463          	bnez	a5,414 <exec_cmd+0x26c>
     3b0:	f5842703          	lw	a4,-168(s0)
     3b4:	00700793          	li	a5,7
     3b8:	00f71a63          	bne	a4,a5,3cc <exec_cmd+0x224>
     3bc:	00100517          	auipc	a0,0x100
     3c0:	cd050513          	addi	a0,a0,-816 # 10008c <err_argmiss>
     3c4:	4dd000ef          	jal	ra,10a0 <putstr>
     3c8:	1ac0006f          	j	574 <exec_cmd+0x3cc>
     3cc:	f5c42783          	lw	a5,-164(s0)
     3d0:	00778793          	addi	a5,a5,7
     3d4:	00078513          	mv	a0,a5
     3d8:	29c010ef          	jal	ra,1674 <a2u>
     3dc:	fea42423          	sw	a0,-24(s0)
     3e0:	fe842703          	lw	a4,-24(s0)
     3e4:	00700793          	li	a5,7
     3e8:	00e7fa63          	bgeu	a5,a4,3fc <exec_cmd+0x254>
     3ec:	00100517          	auipc	a0,0x100
     3f0:	cbc50513          	addi	a0,a0,-836 # 1000a8 <err_argill>
     3f4:	4ad000ef          	jal	ra,10a0 <putstr>
     3f8:	17c0006f          	j	574 <exec_cmd+0x3cc>
     3fc:	fe842503          	lw	a0,-24(s0)
     400:	65d000ef          	jal	ra,125c <ledoff>
     404:	00100517          	auipc	a0,0x100
     408:	d0c50513          	addi	a0,a0,-756 # 100110 <success>
     40c:	495000ef          	jal	ra,10a0 <putstr>
     410:	1640006f          	j	574 <exec_cmd+0x3cc>
     414:	f5842703          	lw	a4,-168(s0)
     418:	00200793          	li	a5,2
     41c:	06e7fe63          	bgeu	a5,a4,498 <exec_cmd+0x2f0>
     420:	00300613          	li	a2,3
     424:	00100597          	auipc	a1,0x100
     428:	c3058593          	addi	a1,a1,-976 # 100054 <_etext+0xfe714>
     42c:	f5c42503          	lw	a0,-164(s0)
     430:	0bc010ef          	jal	ra,14ec <strncmp>
     434:	00050793          	mv	a5,a0
     438:	06079063          	bnez	a5,498 <exec_cmd+0x2f0>
     43c:	f5842703          	lw	a4,-168(s0)
     440:	00300793          	li	a5,3
     444:	00f71a63          	bne	a4,a5,458 <exec_cmd+0x2b0>
     448:	00100517          	auipc	a0,0x100
     44c:	c4450513          	addi	a0,a0,-956 # 10008c <err_argmiss>
     450:	451000ef          	jal	ra,10a0 <putstr>
     454:	1200006f          	j	574 <exec_cmd+0x3cc>
     458:	f5c42783          	lw	a5,-164(s0)
     45c:	00378793          	addi	a5,a5,3
     460:	00078513          	mv	a0,a5
     464:	210010ef          	jal	ra,1674 <a2u>
     468:	fea42223          	sw	a0,-28(s0)
     46c:	fe442503          	lw	a0,-28(s0)
     470:	114000ef          	jal	ra,584 <fib>
     474:	00050713          	mv	a4,a0
     478:	f6440793          	addi	a5,s0,-156
     47c:	00070593          	mv	a1,a4
     480:	00078513          	mv	a0,a5
     484:	310010ef          	jal	ra,1794 <u2a>
     488:	f6440793          	addi	a5,s0,-156
     48c:	00078513          	mv	a0,a5
     490:	411000ef          	jal	ra,10a0 <putstr>
     494:	0e00006f          	j	574 <exec_cmd+0x3cc>
     498:	f5842703          	lw	a4,-168(s0)
     49c:	00300793          	li	a5,3
     4a0:	04e7f863          	bgeu	a5,a4,4f0 <exec_cmd+0x348>
     4a4:	00400613          	li	a2,4
     4a8:	00100597          	auipc	a1,0x100
     4ac:	bb058593          	addi	a1,a1,-1104 # 100058 <_etext+0xfe718>
     4b0:	f5c42503          	lw	a0,-164(s0)
     4b4:	038010ef          	jal	ra,14ec <strncmp>
     4b8:	00050793          	mv	a5,a0
     4bc:	02079a63          	bnez	a5,4f0 <exec_cmd+0x348>
     4c0:	f5842703          	lw	a4,-168(s0)
     4c4:	00500793          	li	a5,5
     4c8:	00e7ea63          	bltu	a5,a4,4dc <exec_cmd+0x334>
     4cc:	00100517          	auipc	a0,0x100
     4d0:	bc050513          	addi	a0,a0,-1088 # 10008c <err_argmiss>
     4d4:	3cd000ef          	jal	ra,10a0 <putstr>
     4d8:	09c0006f          	j	574 <exec_cmd+0x3cc>
     4dc:	f5c42783          	lw	a5,-164(s0)
     4e0:	00578793          	addi	a5,a5,5
     4e4:	00078513          	mv	a0,a5
     4e8:	3b9000ef          	jal	ra,10a0 <putstr>
     4ec:	0880006f          	j	574 <exec_cmd+0x3cc>
     4f0:	f5842703          	lw	a4,-168(s0)
     4f4:	00300793          	li	a5,3
     4f8:	06e7f863          	bgeu	a5,a4,568 <exec_cmd+0x3c0>
     4fc:	00400613          	li	a2,4
     500:	00100597          	auipc	a1,0x100
     504:	b6058593          	addi	a1,a1,-1184 # 100060 <_etext+0xfe720>
     508:	f5c42503          	lw	a0,-164(s0)
     50c:	7e1000ef          	jal	ra,14ec <strncmp>
     510:	00050793          	mv	a5,a0
     514:	04079a63          	bnez	a5,568 <exec_cmd+0x3c0>
     518:	f5842703          	lw	a4,-168(s0)
     51c:	00500793          	li	a5,5
     520:	00e7ea63          	bltu	a5,a4,534 <exec_cmd+0x38c>
     524:	00100517          	auipc	a0,0x100
     528:	b6850513          	addi	a0,a0,-1176 # 10008c <err_argmiss>
     52c:	375000ef          	jal	ra,10a0 <putstr>
     530:	0440006f          	j	574 <exec_cmd+0x3cc>
     534:	f5c42783          	lw	a5,-164(s0)
     538:	00578793          	addi	a5,a5,5
     53c:	00078513          	mv	a0,a5
     540:	0dc000ef          	jal	ra,61c <expr>
     544:	00050713          	mv	a4,a0
     548:	f6440793          	addi	a5,s0,-156
     54c:	00070593          	mv	a1,a4
     550:	00078513          	mv	a0,a5
     554:	37c010ef          	jal	ra,18d0 <i2a>
     558:	f6440793          	addi	a5,s0,-156
     55c:	00078513          	mv	a0,a5
     560:	341000ef          	jal	ra,10a0 <putstr>
     564:	0100006f          	j	574 <exec_cmd+0x3cc>
     568:	00100517          	auipc	a0,0x100
     56c:	b1050513          	addi	a0,a0,-1264 # 100078 <err_unknown>
     570:	331000ef          	jal	ra,10a0 <putstr>
     574:	0ac12083          	lw	ra,172(sp)
     578:	0a812403          	lw	s0,168(sp)
     57c:	0b010113          	addi	sp,sp,176
     580:	00008067          	ret

00000584 <fib>:
     584:	fd010113          	addi	sp,sp,-48
     588:	02812623          	sw	s0,44(sp)
     58c:	03010413          	addi	s0,sp,48
     590:	fca42e23          	sw	a0,-36(s0)
     594:	fe042623          	sw	zero,-20(s0)
     598:	00100793          	li	a5,1
     59c:	fef42423          	sw	a5,-24(s0)
     5a0:	fdc42783          	lw	a5,-36(s0)
     5a4:	00079663          	bnez	a5,5b0 <fib+0x2c>
     5a8:	00000793          	li	a5,0
     5ac:	0600006f          	j	60c <fib+0x88>
     5b0:	fdc42703          	lw	a4,-36(s0)
     5b4:	00100793          	li	a5,1
     5b8:	00f71663          	bne	a4,a5,5c4 <fib+0x40>
     5bc:	00100793          	li	a5,1
     5c0:	04c0006f          	j	60c <fib+0x88>
     5c4:	00200793          	li	a5,2
     5c8:	fef42223          	sw	a5,-28(s0)
     5cc:	0300006f          	j	5fc <fib+0x78>
     5d0:	fe842783          	lw	a5,-24(s0)
     5d4:	fef42023          	sw	a5,-32(s0)
     5d8:	fe842703          	lw	a4,-24(s0)
     5dc:	fec42783          	lw	a5,-20(s0)
     5e0:	00f707b3          	add	a5,a4,a5
     5e4:	fef42423          	sw	a5,-24(s0)
     5e8:	fe042783          	lw	a5,-32(s0)
     5ec:	fef42623          	sw	a5,-20(s0)
     5f0:	fe442783          	lw	a5,-28(s0)
     5f4:	00178793          	addi	a5,a5,1
     5f8:	fef42223          	sw	a5,-28(s0)
     5fc:	fe442703          	lw	a4,-28(s0)
     600:	fdc42783          	lw	a5,-36(s0)
     604:	fce7f6e3          	bgeu	a5,a4,5d0 <fib+0x4c>
     608:	fe842783          	lw	a5,-24(s0)
     60c:	00078513          	mv	a0,a5
     610:	02c12403          	lw	s0,44(sp)
     614:	03010113          	addi	sp,sp,48
     618:	00008067          	ret

0000061c <expr>:
     61c:	cc010113          	addi	sp,sp,-832
     620:	32112e23          	sw	ra,828(sp)
     624:	32812c23          	sw	s0,824(sp)
     628:	34010413          	addi	s0,sp,832
     62c:	cca42623          	sw	a0,-820(s0)
     630:	fe042623          	sw	zero,-20(s0)
     634:	0340006f          	j	668 <expr+0x4c>
     638:	fec42783          	lw	a5,-20(s0)
     63c:	00279793          	slli	a5,a5,0x2
     640:	ff040713          	addi	a4,s0,-16
     644:	00f707b3          	add	a5,a4,a5
     648:	de07a823          	sw	zero,-528(a5)
     64c:	fec42783          	lw	a5,-20(s0)
     650:	ff040713          	addi	a4,s0,-16
     654:	00f707b3          	add	a5,a4,a5
     658:	d6078823          	sb	zero,-656(a5)
     65c:	fec42783          	lw	a5,-20(s0)
     660:	00178793          	addi	a5,a5,1
     664:	fef42623          	sw	a5,-20(s0)
     668:	fec42703          	lw	a4,-20(s0)
     66c:	07f00793          	li	a5,127
     670:	fce7f4e3          	bgeu	a5,a4,638 <expr+0x1c>
     674:	fff00793          	li	a5,-1
     678:	d4f42e23          	sw	a5,-676(s0)
     67c:	fff00793          	li	a5,-1
     680:	d4f42c23          	sw	a5,-680(s0)
     684:	fe042223          	sw	zero,-28(s0)
     688:	fe042023          	sw	zero,-32(s0)
     68c:	1540006f          	j	7e0 <expr+0x1c4>
     690:	cd840793          	addi	a5,s0,-808
     694:	fef42423          	sw	a5,-24(s0)
     698:	0240006f          	j	6bc <expr+0xa0>
     69c:	ccc42703          	lw	a4,-820(s0)
     6a0:	00170793          	addi	a5,a4,1
     6a4:	ccf42623          	sw	a5,-820(s0)
     6a8:	fe842783          	lw	a5,-24(s0)
     6ac:	00178693          	addi	a3,a5,1
     6b0:	fed42423          	sw	a3,-24(s0)
     6b4:	00074703          	lbu	a4,0(a4)
     6b8:	00e78023          	sb	a4,0(a5)
     6bc:	ccc42783          	lw	a5,-820(s0)
     6c0:	0007c703          	lbu	a4,0(a5)
     6c4:	02f00793          	li	a5,47
     6c8:	00e7fa63          	bgeu	a5,a4,6dc <expr+0xc0>
     6cc:	ccc42783          	lw	a5,-820(s0)
     6d0:	0007c703          	lbu	a4,0(a5)
     6d4:	03900793          	li	a5,57
     6d8:	fce7f2e3          	bgeu	a5,a4,69c <expr+0x80>
     6dc:	ccc42783          	lw	a5,-820(s0)
     6e0:	0007c703          	lbu	a4,0(a5)
     6e4:	02800793          	li	a5,40
     6e8:	04f70263          	beq	a4,a5,72c <expr+0x110>
     6ec:	fe842783          	lw	a5,-24(s0)
     6f0:	fff78793          	addi	a5,a5,-1
     6f4:	0007c783          	lbu	a5,0(a5)
     6f8:	02078a63          	beqz	a5,72c <expr+0x110>
     6fc:	fe842783          	lw	a5,-24(s0)
     700:	00078023          	sb	zero,0(a5)
     704:	cd840793          	addi	a5,s0,-808
     708:	00078513          	mv	a0,a5
     70c:	028010ef          	jal	ra,1734 <a2i>
     710:	fea42223          	sw	a0,-28(s0)
     714:	d5c40713          	addi	a4,s0,-676
     718:	de040793          	addi	a5,s0,-544
     71c:	fe442603          	lw	a2,-28(s0)
     720:	00070593          	mv	a1,a4
     724:	00078513          	mv	a0,a5
     728:	0dc000ef          	jal	ra,804 <insert_operand>
     72c:	d5842703          	lw	a4,-680(s0)
     730:	fff00793          	li	a5,-1
     734:	00f71863          	bne	a4,a5,744 <expr+0x128>
     738:	ccc42783          	lw	a5,-820(s0)
     73c:	0007c783          	lbu	a5,0(a5)
     740:	08078863          	beqz	a5,7d0 <expr+0x1b4>
     744:	ccc42783          	lw	a5,-820(s0)
     748:	0007c683          	lbu	a3,0(a5)
     74c:	d5840713          	addi	a4,s0,-680
     750:	d6040793          	addi	a5,s0,-672
     754:	00068613          	mv	a2,a3
     758:	00070593          	mv	a1,a4
     75c:	00078513          	mv	a0,a5
     760:	158000ef          	jal	ra,8b8 <compare>
     764:	fea42023          	sw	a0,-32(s0)
     768:	fe042783          	lw	a5,-32(s0)
     76c:	02079463          	bnez	a5,794 <expr+0x178>
     770:	ccc42783          	lw	a5,-820(s0)
     774:	0007c683          	lbu	a3,0(a5)
     778:	d5840713          	addi	a4,s0,-680
     77c:	d6040793          	addi	a5,s0,-672
     780:	00068613          	mv	a2,a3
     784:	00070593          	mv	a1,a4
     788:	00078513          	mv	a0,a5
     78c:	0d0000ef          	jal	ra,85c <insert_oper>
     790:	0440006f          	j	7d4 <expr+0x1b8>
     794:	fe042703          	lw	a4,-32(s0)
     798:	00100793          	li	a5,1
     79c:	00f71a63          	bne	a4,a5,7b0 <expr+0x194>
     7a0:	ccc42783          	lw	a5,-820(s0)
     7a4:	00178793          	addi	a5,a5,1
     7a8:	ccf42623          	sw	a5,-820(s0)
     7ac:	f81ff06f          	j	72c <expr+0x110>
     7b0:	d5840693          	addi	a3,s0,-680
     7b4:	d5c40613          	addi	a2,s0,-676
     7b8:	d6040713          	addi	a4,s0,-672
     7bc:	de040793          	addi	a5,s0,-544
     7c0:	00070593          	mv	a1,a4
     7c4:	00078513          	mv	a0,a5
     7c8:	218000ef          	jal	ra,9e0 <deal_date>
     7cc:	f61ff06f          	j	72c <expr+0x110>
     7d0:	00000013          	nop
     7d4:	ccc42783          	lw	a5,-820(s0)
     7d8:	00178793          	addi	a5,a5,1
     7dc:	ccf42623          	sw	a5,-820(s0)
     7e0:	ccc42783          	lw	a5,-820(s0)
     7e4:	0007c783          	lbu	a5,0(a5)
     7e8:	ea0794e3          	bnez	a5,690 <expr+0x74>
     7ec:	de042783          	lw	a5,-544(s0)
     7f0:	00078513          	mv	a0,a5
     7f4:	33c12083          	lw	ra,828(sp)
     7f8:	33812403          	lw	s0,824(sp)
     7fc:	34010113          	addi	sp,sp,832
     800:	00008067          	ret

00000804 <insert_operand>:
     804:	fe010113          	addi	sp,sp,-32
     808:	00812e23          	sw	s0,28(sp)
     80c:	02010413          	addi	s0,sp,32
     810:	fea42623          	sw	a0,-20(s0)
     814:	feb42423          	sw	a1,-24(s0)
     818:	fec42223          	sw	a2,-28(s0)
     81c:	fe842783          	lw	a5,-24(s0)
     820:	0007a783          	lw	a5,0(a5)
     824:	00178713          	addi	a4,a5,1
     828:	fe842783          	lw	a5,-24(s0)
     82c:	00e7a023          	sw	a4,0(a5)
     830:	fe842783          	lw	a5,-24(s0)
     834:	0007a783          	lw	a5,0(a5)
     838:	00279793          	slli	a5,a5,0x2
     83c:	fec42703          	lw	a4,-20(s0)
     840:	00f707b3          	add	a5,a4,a5
     844:	fe442703          	lw	a4,-28(s0)
     848:	00e7a023          	sw	a4,0(a5)
     84c:	00000013          	nop
     850:	01c12403          	lw	s0,28(sp)
     854:	02010113          	addi	sp,sp,32
     858:	00008067          	ret

0000085c <insert_oper>:
     85c:	fe010113          	addi	sp,sp,-32
     860:	00812e23          	sw	s0,28(sp)
     864:	02010413          	addi	s0,sp,32
     868:	fea42623          	sw	a0,-20(s0)
     86c:	feb42423          	sw	a1,-24(s0)
     870:	00060793          	mv	a5,a2
     874:	fef403a3          	sb	a5,-25(s0)
     878:	fe842783          	lw	a5,-24(s0)
     87c:	0007a783          	lw	a5,0(a5)
     880:	00178713          	addi	a4,a5,1
     884:	fe842783          	lw	a5,-24(s0)
     888:	00e7a023          	sw	a4,0(a5)
     88c:	fe842783          	lw	a5,-24(s0)
     890:	0007a783          	lw	a5,0(a5)
     894:	00078713          	mv	a4,a5
     898:	fec42783          	lw	a5,-20(s0)
     89c:	00e787b3          	add	a5,a5,a4
     8a0:	fe744703          	lbu	a4,-25(s0)
     8a4:	00e78023          	sb	a4,0(a5)
     8a8:	00000013          	nop
     8ac:	01c12403          	lw	s0,28(sp)
     8b0:	02010113          	addi	sp,sp,32
     8b4:	00008067          	ret

000008b8 <compare>:
     8b8:	fe010113          	addi	sp,sp,-32
     8bc:	00812e23          	sw	s0,28(sp)
     8c0:	02010413          	addi	s0,sp,32
     8c4:	fea42623          	sw	a0,-20(s0)
     8c8:	feb42423          	sw	a1,-24(s0)
     8cc:	00060793          	mv	a5,a2
     8d0:	fef403a3          	sb	a5,-25(s0)
     8d4:	fe842783          	lw	a5,-24(s0)
     8d8:	0007a783          	lw	a5,0(a5)
     8dc:	00078713          	mv	a4,a5
     8e0:	fec42783          	lw	a5,-20(s0)
     8e4:	00e787b3          	add	a5,a5,a4
     8e8:	0007c703          	lbu	a4,0(a5)
     8ec:	02d00793          	li	a5,45
     8f0:	02f70263          	beq	a4,a5,914 <compare+0x5c>
     8f4:	fe842783          	lw	a5,-24(s0)
     8f8:	0007a783          	lw	a5,0(a5)
     8fc:	00078713          	mv	a4,a5
     900:	fec42783          	lw	a5,-20(s0)
     904:	00e787b3          	add	a5,a5,a4
     908:	0007c703          	lbu	a4,0(a5)
     90c:	02b00793          	li	a5,43
     910:	02f71263          	bne	a4,a5,934 <compare+0x7c>
     914:	fe744703          	lbu	a4,-25(s0)
     918:	02a00793          	li	a5,42
     91c:	00f70863          	beq	a4,a5,92c <compare+0x74>
     920:	fe744703          	lbu	a4,-25(s0)
     924:	02f00793          	li	a5,47
     928:	00f71663          	bne	a4,a5,934 <compare+0x7c>
     92c:	00000793          	li	a5,0
     930:	0a00006f          	j	9d0 <compare+0x118>
     934:	fe842783          	lw	a5,-24(s0)
     938:	0007a703          	lw	a4,0(a5)
     93c:	fff00793          	li	a5,-1
     940:	02f70e63          	beq	a4,a5,97c <compare+0xc4>
     944:	fe744703          	lbu	a4,-25(s0)
     948:	02800793          	li	a5,40
     94c:	02f70863          	beq	a4,a5,97c <compare+0xc4>
     950:	fe842783          	lw	a5,-24(s0)
     954:	0007a783          	lw	a5,0(a5)
     958:	00078713          	mv	a4,a5
     95c:	fec42783          	lw	a5,-20(s0)
     960:	00e787b3          	add	a5,a5,a4
     964:	0007c703          	lbu	a4,0(a5)
     968:	02800793          	li	a5,40
     96c:	00f71c63          	bne	a4,a5,984 <compare+0xcc>
     970:	fe744703          	lbu	a4,-25(s0)
     974:	02900793          	li	a5,41
     978:	00f70663          	beq	a4,a5,984 <compare+0xcc>
     97c:	00000793          	li	a5,0
     980:	0500006f          	j	9d0 <compare+0x118>
     984:	fe842783          	lw	a5,-24(s0)
     988:	0007a783          	lw	a5,0(a5)
     98c:	00078713          	mv	a4,a5
     990:	fec42783          	lw	a5,-20(s0)
     994:	00e787b3          	add	a5,a5,a4
     998:	0007c703          	lbu	a4,0(a5)
     99c:	02800793          	li	a5,40
     9a0:	02f71663          	bne	a4,a5,9cc <compare+0x114>
     9a4:	fe744703          	lbu	a4,-25(s0)
     9a8:	02900793          	li	a5,41
     9ac:	02f71063          	bne	a4,a5,9cc <compare+0x114>
     9b0:	fe842783          	lw	a5,-24(s0)
     9b4:	0007a783          	lw	a5,0(a5)
     9b8:	fff78713          	addi	a4,a5,-1
     9bc:	fe842783          	lw	a5,-24(s0)
     9c0:	00e7a023          	sw	a4,0(a5)
     9c4:	00100793          	li	a5,1
     9c8:	0080006f          	j	9d0 <compare+0x118>
     9cc:	fff00793          	li	a5,-1
     9d0:	00078513          	mv	a0,a5
     9d4:	01c12403          	lw	s0,28(sp)
     9d8:	02010113          	addi	sp,sp,32
     9dc:	00008067          	ret

000009e0 <deal_date>:
     9e0:	fd010113          	addi	sp,sp,-48
     9e4:	02112623          	sw	ra,44(sp)
     9e8:	02812423          	sw	s0,40(sp)
     9ec:	03010413          	addi	s0,sp,48
     9f0:	fca42e23          	sw	a0,-36(s0)
     9f4:	fcb42c23          	sw	a1,-40(s0)
     9f8:	fcc42a23          	sw	a2,-44(s0)
     9fc:	fcd42823          	sw	a3,-48(s0)
     a00:	fd442783          	lw	a5,-44(s0)
     a04:	0007a783          	lw	a5,0(a5)
     a08:	00279793          	slli	a5,a5,0x2
     a0c:	fdc42703          	lw	a4,-36(s0)
     a10:	00f707b3          	add	a5,a4,a5
     a14:	0007a783          	lw	a5,0(a5)
     a18:	fef42423          	sw	a5,-24(s0)
     a1c:	fd442783          	lw	a5,-44(s0)
     a20:	0007a783          	lw	a5,0(a5)
     a24:	00078713          	mv	a4,a5
     a28:	400007b7          	lui	a5,0x40000
     a2c:	fff78793          	addi	a5,a5,-1 # 3fffffff <_end+0x3feff7ff>
     a30:	00f707b3          	add	a5,a4,a5
     a34:	00279793          	slli	a5,a5,0x2
     a38:	fdc42703          	lw	a4,-36(s0)
     a3c:	00f707b3          	add	a5,a4,a5
     a40:	0007a783          	lw	a5,0(a5)
     a44:	fef42223          	sw	a5,-28(s0)
     a48:	fd042783          	lw	a5,-48(s0)
     a4c:	0007a783          	lw	a5,0(a5)
     a50:	00078713          	mv	a4,a5
     a54:	fd842783          	lw	a5,-40(s0)
     a58:	00e787b3          	add	a5,a5,a4
     a5c:	0007c783          	lbu	a5,0(a5)
     a60:	02f00713          	li	a4,47
     a64:	06e78663          	beq	a5,a4,ad0 <deal_date+0xf0>
     a68:	02f00713          	li	a4,47
     a6c:	06f74e63          	blt	a4,a5,ae8 <deal_date+0x108>
     a70:	02d00713          	li	a4,45
     a74:	02e78863          	beq	a5,a4,aa4 <deal_date+0xc4>
     a78:	02d00713          	li	a4,45
     a7c:	06f74663          	blt	a4,a5,ae8 <deal_date+0x108>
     a80:	02a00713          	li	a4,42
     a84:	02e78a63          	beq	a5,a4,ab8 <deal_date+0xd8>
     a88:	02b00713          	li	a4,43
     a8c:	04e79e63          	bne	a5,a4,ae8 <deal_date+0x108>
     a90:	fe842703          	lw	a4,-24(s0)
     a94:	fe442783          	lw	a5,-28(s0)
     a98:	00f707b3          	add	a5,a4,a5
     a9c:	fef42623          	sw	a5,-20(s0)
     aa0:	0500006f          	j	af0 <deal_date+0x110>
     aa4:	fe442703          	lw	a4,-28(s0)
     aa8:	fe842783          	lw	a5,-24(s0)
     aac:	40f707b3          	sub	a5,a4,a5
     ab0:	fef42623          	sw	a5,-20(s0)
     ab4:	03c0006f          	j	af0 <deal_date+0x110>
     ab8:	fe842583          	lw	a1,-24(s0)
     abc:	fe442503          	lw	a0,-28(s0)
     ac0:	088000ef          	jal	ra,b48 <__mulsi3>
     ac4:	00050793          	mv	a5,a0
     ac8:	fef42623          	sw	a5,-20(s0)
     acc:	0240006f          	j	af0 <deal_date+0x110>
     ad0:	fe842583          	lw	a1,-24(s0)
     ad4:	fe442503          	lw	a0,-28(s0)
     ad8:	254000ef          	jal	ra,d2c <__divsi3>
     adc:	00050793          	mv	a5,a0
     ae0:	fef42623          	sw	a5,-20(s0)
     ae4:	00c0006f          	j	af0 <deal_date+0x110>
     ae8:	fe042623          	sw	zero,-20(s0)
     aec:	00000013          	nop
     af0:	fd442783          	lw	a5,-44(s0)
     af4:	0007a783          	lw	a5,0(a5)
     af8:	fff78713          	addi	a4,a5,-1
     afc:	fd442783          	lw	a5,-44(s0)
     b00:	00e7a023          	sw	a4,0(a5)
     b04:	fd442783          	lw	a5,-44(s0)
     b08:	0007a783          	lw	a5,0(a5)
     b0c:	00279793          	slli	a5,a5,0x2
     b10:	fdc42703          	lw	a4,-36(s0)
     b14:	00f707b3          	add	a5,a4,a5
     b18:	fec42703          	lw	a4,-20(s0)
     b1c:	00e7a023          	sw	a4,0(a5)
     b20:	fd042783          	lw	a5,-48(s0)
     b24:	0007a783          	lw	a5,0(a5)
     b28:	fff78713          	addi	a4,a5,-1
     b2c:	fd042783          	lw	a5,-48(s0)
     b30:	00e7a023          	sw	a4,0(a5)
     b34:	00000013          	nop
     b38:	02c12083          	lw	ra,44(sp)
     b3c:	02812403          	lw	s0,40(sp)
     b40:	03010113          	addi	sp,sp,48
     b44:	00008067          	ret

00000b48 <__mulsi3>:
     b48:	fd010113          	addi	sp,sp,-48
     b4c:	02812623          	sw	s0,44(sp)
     b50:	03010413          	addi	s0,sp,48
     b54:	fca42e23          	sw	a0,-36(s0)
     b58:	fcb42c23          	sw	a1,-40(s0)
     b5c:	fe042623          	sw	zero,-20(s0)
     b60:	0380006f          	j	b98 <__mulsi3+0x50>
     b64:	fdc42783          	lw	a5,-36(s0)
     b68:	0017f793          	andi	a5,a5,1
     b6c:	00078a63          	beqz	a5,b80 <__mulsi3+0x38>
     b70:	fec42703          	lw	a4,-20(s0)
     b74:	fd842783          	lw	a5,-40(s0)
     b78:	00f707b3          	add	a5,a4,a5
     b7c:	fef42623          	sw	a5,-20(s0)
     b80:	fdc42783          	lw	a5,-36(s0)
     b84:	0017d793          	srli	a5,a5,0x1
     b88:	fcf42e23          	sw	a5,-36(s0)
     b8c:	fd842783          	lw	a5,-40(s0)
     b90:	00179793          	slli	a5,a5,0x1
     b94:	fcf42c23          	sw	a5,-40(s0)
     b98:	fdc42783          	lw	a5,-36(s0)
     b9c:	fc0794e3          	bnez	a5,b64 <__mulsi3+0x1c>
     ba0:	fec42783          	lw	a5,-20(s0)
     ba4:	00078513          	mv	a0,a5
     ba8:	02c12403          	lw	s0,44(sp)
     bac:	03010113          	addi	sp,sp,48
     bb0:	00008067          	ret

00000bb4 <__umodsi3>:
     bb4:	fd010113          	addi	sp,sp,-48
     bb8:	02812623          	sw	s0,44(sp)
     bbc:	03010413          	addi	s0,sp,48
     bc0:	fca42e23          	sw	a0,-36(s0)
     bc4:	fcb42c23          	sw	a1,-40(s0)
     bc8:	00100793          	li	a5,1
     bcc:	fef42623          	sw	a5,-20(s0)
     bd0:	fe042423          	sw	zero,-24(s0)
     bd4:	01c0006f          	j	bf0 <__umodsi3+0x3c>
     bd8:	fd842783          	lw	a5,-40(s0)
     bdc:	00179793          	slli	a5,a5,0x1
     be0:	fcf42c23          	sw	a5,-40(s0)
     be4:	fec42783          	lw	a5,-20(s0)
     be8:	00179793          	slli	a5,a5,0x1
     bec:	fef42623          	sw	a5,-20(s0)
     bf0:	fd842703          	lw	a4,-40(s0)
     bf4:	fdc42783          	lw	a5,-36(s0)
     bf8:	04f77e63          	bgeu	a4,a5,c54 <__umodsi3+0xa0>
     bfc:	fec42783          	lw	a5,-20(s0)
     c00:	04078a63          	beqz	a5,c54 <__umodsi3+0xa0>
     c04:	fd842783          	lw	a5,-40(s0)
     c08:	fc07d8e3          	bgez	a5,bd8 <__umodsi3+0x24>
     c0c:	0480006f          	j	c54 <__umodsi3+0xa0>
     c10:	fdc42703          	lw	a4,-36(s0)
     c14:	fd842783          	lw	a5,-40(s0)
     c18:	02f76263          	bltu	a4,a5,c3c <__umodsi3+0x88>
     c1c:	fdc42703          	lw	a4,-36(s0)
     c20:	fd842783          	lw	a5,-40(s0)
     c24:	40f707b3          	sub	a5,a4,a5
     c28:	fcf42e23          	sw	a5,-36(s0)
     c2c:	fe842703          	lw	a4,-24(s0)
     c30:	fec42783          	lw	a5,-20(s0)
     c34:	00f767b3          	or	a5,a4,a5
     c38:	fef42423          	sw	a5,-24(s0)
     c3c:	fec42783          	lw	a5,-20(s0)
     c40:	0017d793          	srli	a5,a5,0x1
     c44:	fef42623          	sw	a5,-20(s0)
     c48:	fd842783          	lw	a5,-40(s0)
     c4c:	0017d793          	srli	a5,a5,0x1
     c50:	fcf42c23          	sw	a5,-40(s0)
     c54:	fec42783          	lw	a5,-20(s0)
     c58:	fa079ce3          	bnez	a5,c10 <__umodsi3+0x5c>
     c5c:	fdc42783          	lw	a5,-36(s0)
     c60:	00078513          	mv	a0,a5
     c64:	02c12403          	lw	s0,44(sp)
     c68:	03010113          	addi	sp,sp,48
     c6c:	00008067          	ret

00000c70 <__udivsi3>:
     c70:	fd010113          	addi	sp,sp,-48
     c74:	02812623          	sw	s0,44(sp)
     c78:	03010413          	addi	s0,sp,48
     c7c:	fca42e23          	sw	a0,-36(s0)
     c80:	fcb42c23          	sw	a1,-40(s0)
     c84:	00100793          	li	a5,1
     c88:	fef42623          	sw	a5,-20(s0)
     c8c:	fe042423          	sw	zero,-24(s0)
     c90:	01c0006f          	j	cac <__udivsi3+0x3c>
     c94:	fd842783          	lw	a5,-40(s0)
     c98:	00179793          	slli	a5,a5,0x1
     c9c:	fcf42c23          	sw	a5,-40(s0)
     ca0:	fec42783          	lw	a5,-20(s0)
     ca4:	00179793          	slli	a5,a5,0x1
     ca8:	fef42623          	sw	a5,-20(s0)
     cac:	fd842703          	lw	a4,-40(s0)
     cb0:	fdc42783          	lw	a5,-36(s0)
     cb4:	04f77e63          	bgeu	a4,a5,d10 <__udivsi3+0xa0>
     cb8:	fec42783          	lw	a5,-20(s0)
     cbc:	04078a63          	beqz	a5,d10 <__udivsi3+0xa0>
     cc0:	fd842783          	lw	a5,-40(s0)
     cc4:	fc07d8e3          	bgez	a5,c94 <__udivsi3+0x24>
     cc8:	0480006f          	j	d10 <__udivsi3+0xa0>
     ccc:	fdc42703          	lw	a4,-36(s0)
     cd0:	fd842783          	lw	a5,-40(s0)
     cd4:	02f76263          	bltu	a4,a5,cf8 <__udivsi3+0x88>
     cd8:	fdc42703          	lw	a4,-36(s0)
     cdc:	fd842783          	lw	a5,-40(s0)
     ce0:	40f707b3          	sub	a5,a4,a5
     ce4:	fcf42e23          	sw	a5,-36(s0)
     ce8:	fe842703          	lw	a4,-24(s0)
     cec:	fec42783          	lw	a5,-20(s0)
     cf0:	00f767b3          	or	a5,a4,a5
     cf4:	fef42423          	sw	a5,-24(s0)
     cf8:	fec42783          	lw	a5,-20(s0)
     cfc:	0017d793          	srli	a5,a5,0x1
     d00:	fef42623          	sw	a5,-20(s0)
     d04:	fd842783          	lw	a5,-40(s0)
     d08:	0017d793          	srli	a5,a5,0x1
     d0c:	fcf42c23          	sw	a5,-40(s0)
     d10:	fec42783          	lw	a5,-20(s0)
     d14:	fa079ce3          	bnez	a5,ccc <__udivsi3+0x5c>
     d18:	fe842783          	lw	a5,-24(s0)
     d1c:	00078513          	mv	a0,a5
     d20:	02c12403          	lw	s0,44(sp)
     d24:	03010113          	addi	sp,sp,48
     d28:	00008067          	ret

00000d2c <__divsi3>:
     d2c:	fe010113          	addi	sp,sp,-32
     d30:	00112e23          	sw	ra,28(sp)
     d34:	00812c23          	sw	s0,24(sp)
     d38:	02010413          	addi	s0,sp,32
     d3c:	fea42623          	sw	a0,-20(s0)
     d40:	feb42423          	sw	a1,-24(s0)
     d44:	fec42783          	lw	a5,-20(s0)
     d48:	0207c463          	bltz	a5,d70 <__divsi3+0x44>
     d4c:	fe842783          	lw	a5,-24(s0)
     d50:	02f05063          	blez	a5,d70 <__divsi3+0x44>
     d54:	fec42783          	lw	a5,-20(s0)
     d58:	fe842703          	lw	a4,-24(s0)
     d5c:	00070593          	mv	a1,a4
     d60:	00078513          	mv	a0,a5
     d64:	f0dff0ef          	jal	ra,c70 <__udivsi3>
     d68:	00050793          	mv	a5,a0
     d6c:	0a80006f          	j	e14 <__divsi3+0xe8>
     d70:	fec42783          	lw	a5,-20(s0)
     d74:	0207c863          	bltz	a5,da4 <__divsi3+0x78>
     d78:	fe842783          	lw	a5,-24(s0)
     d7c:	0207d463          	bgez	a5,da4 <__divsi3+0x78>
     d80:	fec42703          	lw	a4,-20(s0)
     d84:	fe842783          	lw	a5,-24(s0)
     d88:	40f007b3          	neg	a5,a5
     d8c:	00078593          	mv	a1,a5
     d90:	00070513          	mv	a0,a4
     d94:	eddff0ef          	jal	ra,c70 <__udivsi3>
     d98:	00050793          	mv	a5,a0
     d9c:	40f007b3          	neg	a5,a5
     da0:	0740006f          	j	e14 <__divsi3+0xe8>
     da4:	fec42783          	lw	a5,-20(s0)
     da8:	0207da63          	bgez	a5,ddc <__divsi3+0xb0>
     dac:	fe842783          	lw	a5,-24(s0)
     db0:	02f05663          	blez	a5,ddc <__divsi3+0xb0>
     db4:	fec42783          	lw	a5,-20(s0)
     db8:	40f007b3          	neg	a5,a5
     dbc:	00078713          	mv	a4,a5
     dc0:	fe842783          	lw	a5,-24(s0)
     dc4:	00078593          	mv	a1,a5
     dc8:	00070513          	mv	a0,a4
     dcc:	ea5ff0ef          	jal	ra,c70 <__udivsi3>
     dd0:	00050793          	mv	a5,a0
     dd4:	40f007b3          	neg	a5,a5
     dd8:	03c0006f          	j	e14 <__divsi3+0xe8>
     ddc:	fec42783          	lw	a5,-20(s0)
     de0:	0207da63          	bgez	a5,e14 <__divsi3+0xe8>
     de4:	fe842783          	lw	a5,-24(s0)
     de8:	0207d663          	bgez	a5,e14 <__divsi3+0xe8>
     dec:	fec42783          	lw	a5,-20(s0)
     df0:	40f007b3          	neg	a5,a5
     df4:	00078713          	mv	a4,a5
     df8:	fe842783          	lw	a5,-24(s0)
     dfc:	40f007b3          	neg	a5,a5
     e00:	00078593          	mv	a1,a5
     e04:	00070513          	mv	a0,a4
     e08:	e69ff0ef          	jal	ra,c70 <__udivsi3>
     e0c:	00050793          	mv	a5,a0
     e10:	0040006f          	j	e14 <__divsi3+0xe8>
     e14:	00078513          	mv	a0,a5
     e18:	01c12083          	lw	ra,28(sp)
     e1c:	01812403          	lw	s0,24(sp)
     e20:	02010113          	addi	sp,sp,32
     e24:	00008067          	ret

00000e28 <vga_init>:
     e28:	fe010113          	addi	sp,sp,-32
     e2c:	00812e23          	sw	s0,28(sp)
     e30:	02010413          	addi	s0,sp,32
     e34:	000ff797          	auipc	a5,0xff
     e38:	39078793          	addi	a5,a5,912 # 1001c4 <vga_line>
     e3c:	0007a023          	sw	zero,0(a5)
     e40:	000ff797          	auipc	a5,0xff
     e44:	38878793          	addi	a5,a5,904 # 1001c8 <vga_ch>
     e48:	0007a023          	sw	zero,0(a5)
     e4c:	fe042623          	sw	zero,-20(s0)
     e50:	0540006f          	j	ea4 <vga_init+0x7c>
     e54:	fe042423          	sw	zero,-24(s0)
     e58:	0340006f          	j	e8c <vga_init+0x64>
     e5c:	000ff797          	auipc	a5,0xff
     e60:	2c878793          	addi	a5,a5,712 # 100124 <vga_start>
     e64:	0007a783          	lw	a5,0(a5)
     e68:	fec42703          	lw	a4,-20(s0)
     e6c:	00671693          	slli	a3,a4,0x6
     e70:	fe842703          	lw	a4,-24(s0)
     e74:	00e68733          	add	a4,a3,a4
     e78:	00e787b3          	add	a5,a5,a4
     e7c:	00078023          	sb	zero,0(a5)
     e80:	fe842783          	lw	a5,-24(s0)
     e84:	00178793          	addi	a5,a5,1
     e88:	fef42423          	sw	a5,-24(s0)
     e8c:	fe842703          	lw	a4,-24(s0)
     e90:	03f00793          	li	a5,63
     e94:	fce7d4e3          	bge	a5,a4,e5c <vga_init+0x34>
     e98:	fec42783          	lw	a5,-20(s0)
     e9c:	00178793          	addi	a5,a5,1
     ea0:	fef42623          	sw	a5,-20(s0)
     ea4:	fec42703          	lw	a4,-20(s0)
     ea8:	01d00793          	li	a5,29
     eac:	fae7d4e3          	bge	a5,a4,e54 <vga_init+0x2c>
     eb0:	00000013          	nop
     eb4:	00000013          	nop
     eb8:	01c12403          	lw	s0,28(sp)
     ebc:	02010113          	addi	sp,sp,32
     ec0:	00008067          	ret

00000ec4 <putch>:
     ec4:	fe010113          	addi	sp,sp,-32
     ec8:	00112e23          	sw	ra,28(sp)
     ecc:	00812c23          	sw	s0,24(sp)
     ed0:	02010413          	addi	s0,sp,32
     ed4:	00050793          	mv	a5,a0
     ed8:	fef407a3          	sb	a5,-17(s0)
     edc:	fef44703          	lbu	a4,-17(s0)
     ee0:	00800793          	li	a5,8
     ee4:	04f71c63          	bne	a4,a5,f3c <putch+0x78>
     ee8:	000ff797          	auipc	a5,0xff
     eec:	2e078793          	addi	a5,a5,736 # 1001c8 <vga_ch>
     ef0:	0007a783          	lw	a5,0(a5)
     ef4:	fff78713          	addi	a4,a5,-1
     ef8:	000ff797          	auipc	a5,0xff
     efc:	2d078793          	addi	a5,a5,720 # 1001c8 <vga_ch>
     f00:	00e7a023          	sw	a4,0(a5)
     f04:	000ff797          	auipc	a5,0xff
     f08:	22078793          	addi	a5,a5,544 # 100124 <vga_start>
     f0c:	0007a703          	lw	a4,0(a5)
     f10:	000ff797          	auipc	a5,0xff
     f14:	2b478793          	addi	a5,a5,692 # 1001c4 <vga_line>
     f18:	0007a783          	lw	a5,0(a5)
     f1c:	00679693          	slli	a3,a5,0x6
     f20:	000ff797          	auipc	a5,0xff
     f24:	2a878793          	addi	a5,a5,680 # 1001c8 <vga_ch>
     f28:	0007a783          	lw	a5,0(a5)
     f2c:	00f687b3          	add	a5,a3,a5
     f30:	00f707b3          	add	a5,a4,a5
     f34:	00078023          	sb	zero,0(a5)
     f38:	1580006f          	j	1090 <putch+0x1cc>
     f3c:	fef44703          	lbu	a4,-17(s0)
     f40:	00d00793          	li	a5,13
     f44:	04f71a63          	bne	a4,a5,f98 <putch+0xd4>
     f48:	000ff797          	auipc	a5,0xff
     f4c:	27c78793          	addi	a5,a5,636 # 1001c4 <vga_line>
     f50:	0007a783          	lw	a5,0(a5)
     f54:	00178713          	addi	a4,a5,1
     f58:	000ff797          	auipc	a5,0xff
     f5c:	26c78793          	addi	a5,a5,620 # 1001c4 <vga_line>
     f60:	00e7a023          	sw	a4,0(a5)
     f64:	000ff797          	auipc	a5,0xff
     f68:	26078793          	addi	a5,a5,608 # 1001c4 <vga_line>
     f6c:	0007a703          	lw	a4,0(a5)
     f70:	01d00793          	li	a5,29
     f74:	00e7f463          	bgeu	a5,a4,f7c <putch+0xb8>
     f78:	eb1ff0ef          	jal	ra,e28 <vga_init>
     f7c:	000ff797          	auipc	a5,0xff
     f80:	24c78793          	addi	a5,a5,588 # 1001c8 <vga_ch>
     f84:	0007a023          	sw	zero,0(a5)
     f88:	000ff517          	auipc	a0,0xff
     f8c:	1b050513          	addi	a0,a0,432 # 100138 <cmd>
     f90:	110000ef          	jal	ra,10a0 <putstr>
     f94:	0fc0006f          	j	1090 <putch+0x1cc>
     f98:	fef44703          	lbu	a4,-17(s0)
     f9c:	00a00793          	li	a5,10
     fa0:	04f71463          	bne	a4,a5,fe8 <putch+0x124>
     fa4:	000ff797          	auipc	a5,0xff
     fa8:	22078793          	addi	a5,a5,544 # 1001c4 <vga_line>
     fac:	0007a783          	lw	a5,0(a5)
     fb0:	00178713          	addi	a4,a5,1
     fb4:	000ff797          	auipc	a5,0xff
     fb8:	21078793          	addi	a5,a5,528 # 1001c4 <vga_line>
     fbc:	00e7a023          	sw	a4,0(a5)
     fc0:	000ff797          	auipc	a5,0xff
     fc4:	20478793          	addi	a5,a5,516 # 1001c4 <vga_line>
     fc8:	0007a703          	lw	a4,0(a5)
     fcc:	01d00793          	li	a5,29
     fd0:	00e7f463          	bgeu	a5,a4,fd8 <putch+0x114>
     fd4:	e55ff0ef          	jal	ra,e28 <vga_init>
     fd8:	000ff797          	auipc	a5,0xff
     fdc:	1f078793          	addi	a5,a5,496 # 1001c8 <vga_ch>
     fe0:	0007a023          	sw	zero,0(a5)
     fe4:	0ac0006f          	j	1090 <putch+0x1cc>
     fe8:	000ff797          	auipc	a5,0xff
     fec:	13c78793          	addi	a5,a5,316 # 100124 <vga_start>
     ff0:	0007a703          	lw	a4,0(a5)
     ff4:	000ff797          	auipc	a5,0xff
     ff8:	1d078793          	addi	a5,a5,464 # 1001c4 <vga_line>
     ffc:	0007a783          	lw	a5,0(a5)
    1000:	00679693          	slli	a3,a5,0x6
    1004:	000ff797          	auipc	a5,0xff
    1008:	1c478793          	addi	a5,a5,452 # 1001c8 <vga_ch>
    100c:	0007a783          	lw	a5,0(a5)
    1010:	00f687b3          	add	a5,a3,a5
    1014:	00f707b3          	add	a5,a4,a5
    1018:	fef44703          	lbu	a4,-17(s0)
    101c:	00e78023          	sb	a4,0(a5)
    1020:	000ff797          	auipc	a5,0xff
    1024:	1a878793          	addi	a5,a5,424 # 1001c8 <vga_ch>
    1028:	0007a783          	lw	a5,0(a5)
    102c:	00178713          	addi	a4,a5,1
    1030:	000ff797          	auipc	a5,0xff
    1034:	19878793          	addi	a5,a5,408 # 1001c8 <vga_ch>
    1038:	00e7a023          	sw	a4,0(a5)
    103c:	000ff797          	auipc	a5,0xff
    1040:	18c78793          	addi	a5,a5,396 # 1001c8 <vga_ch>
    1044:	0007a703          	lw	a4,0(a5)
    1048:	03f00793          	li	a5,63
    104c:	02e7f663          	bgeu	a5,a4,1078 <putch+0x1b4>
    1050:	000ff797          	auipc	a5,0xff
    1054:	17478793          	addi	a5,a5,372 # 1001c4 <vga_line>
    1058:	0007a783          	lw	a5,0(a5)
    105c:	00178713          	addi	a4,a5,1
    1060:	000ff797          	auipc	a5,0xff
    1064:	16478793          	addi	a5,a5,356 # 1001c4 <vga_line>
    1068:	00e7a023          	sw	a4,0(a5)
    106c:	000ff797          	auipc	a5,0xff
    1070:	15c78793          	addi	a5,a5,348 # 1001c8 <vga_ch>
    1074:	0007a023          	sw	zero,0(a5)
    1078:	000ff797          	auipc	a5,0xff
    107c:	14c78793          	addi	a5,a5,332 # 1001c4 <vga_line>
    1080:	0007a703          	lw	a4,0(a5)
    1084:	03f00793          	li	a5,63
    1088:	00e7f463          	bgeu	a5,a4,1090 <putch+0x1cc>
    108c:	d9dff0ef          	jal	ra,e28 <vga_init>
    1090:	01c12083          	lw	ra,28(sp)
    1094:	01812403          	lw	s0,24(sp)
    1098:	02010113          	addi	sp,sp,32
    109c:	00008067          	ret

000010a0 <putstr>:
    10a0:	fd010113          	addi	sp,sp,-48
    10a4:	02112623          	sw	ra,44(sp)
    10a8:	02812423          	sw	s0,40(sp)
    10ac:	03010413          	addi	s0,sp,48
    10b0:	fca42e23          	sw	a0,-36(s0)
    10b4:	fdc42783          	lw	a5,-36(s0)
    10b8:	fef42623          	sw	a5,-20(s0)
    10bc:	0200006f          	j	10dc <putstr+0x3c>
    10c0:	fec42783          	lw	a5,-20(s0)
    10c4:	0007c783          	lbu	a5,0(a5)
    10c8:	00078513          	mv	a0,a5
    10cc:	df9ff0ef          	jal	ra,ec4 <putch>
    10d0:	fec42783          	lw	a5,-20(s0)
    10d4:	00178793          	addi	a5,a5,1
    10d8:	fef42623          	sw	a5,-20(s0)
    10dc:	fec42783          	lw	a5,-20(s0)
    10e0:	0007c783          	lbu	a5,0(a5)
    10e4:	fc079ee3          	bnez	a5,10c0 <putstr+0x20>
    10e8:	00000013          	nop
    10ec:	00000013          	nop
    10f0:	02c12083          	lw	ra,44(sp)
    10f4:	02812403          	lw	s0,40(sp)
    10f8:	03010113          	addi	sp,sp,48
    10fc:	00008067          	ret

00001100 <getch>:
    1100:	ff010113          	addi	sp,sp,-16
    1104:	00812623          	sw	s0,12(sp)
    1108:	01010413          	addi	s0,sp,16
    110c:	000ff797          	auipc	a5,0xff
    1110:	01c78793          	addi	a5,a5,28 # 100128 <ps2>
    1114:	0007a783          	lw	a5,0(a5)
    1118:	0007c783          	lbu	a5,0(a5)
    111c:	00078513          	mv	a0,a5
    1120:	00c12403          	lw	s0,12(sp)
    1124:	01010113          	addi	sp,sp,16
    1128:	00008067          	ret

0000112c <setline>:
    112c:	fe010113          	addi	sp,sp,-32
    1130:	00812e23          	sw	s0,28(sp)
    1134:	02010413          	addi	s0,sp,32
    1138:	fea42623          	sw	a0,-20(s0)
    113c:	000ff797          	auipc	a5,0xff
    1140:	08878793          	addi	a5,a5,136 # 1001c4 <vga_line>
    1144:	fec42703          	lw	a4,-20(s0)
    1148:	00e7a023          	sw	a4,0(a5)
    114c:	00000013          	nop
    1150:	01c12403          	lw	s0,28(sp)
    1154:	02010113          	addi	sp,sp,32
    1158:	00008067          	ret

0000115c <initbcd>:
    115c:	ff010113          	addi	sp,sp,-16
    1160:	00812623          	sw	s0,12(sp)
    1164:	01010413          	addi	s0,sp,16
    1168:	000ff797          	auipc	a5,0xff
    116c:	fc478793          	addi	a5,a5,-60 # 10012c <bcd>
    1170:	0007a783          	lw	a5,0(a5)
    1174:	0007a023          	sw	zero,0(a5)
    1178:	00000013          	nop
    117c:	00c12403          	lw	s0,12(sp)
    1180:	01010113          	addi	sp,sp,16
    1184:	00008067          	ret

00001188 <putbcd>:
    1188:	fe010113          	addi	sp,sp,-32
    118c:	00812e23          	sw	s0,28(sp)
    1190:	02010413          	addi	s0,sp,32
    1194:	fea42623          	sw	a0,-20(s0)
    1198:	000ff797          	auipc	a5,0xff
    119c:	f9478793          	addi	a5,a5,-108 # 10012c <bcd>
    11a0:	0007a783          	lw	a5,0(a5)
    11a4:	fec42683          	lw	a3,-20(s0)
    11a8:	01000737          	lui	a4,0x1000
    11ac:	fff70713          	addi	a4,a4,-1 # ffffff <_end+0xeff7ff>
    11b0:	00e6f733          	and	a4,a3,a4
    11b4:	00e7a023          	sw	a4,0(a5)
    11b8:	00000013          	nop
    11bc:	01c12403          	lw	s0,28(sp)
    11c0:	02010113          	addi	sp,sp,32
    11c4:	00008067          	ret

000011c8 <initled>:
    11c8:	fe010113          	addi	sp,sp,-32
    11cc:	00812e23          	sw	s0,28(sp)
    11d0:	02010413          	addi	s0,sp,32
    11d4:	fe042623          	sw	zero,-20(s0)
    11d8:	0280006f          	j	1200 <initled+0x38>
    11dc:	000ff797          	auipc	a5,0xff
    11e0:	f5478793          	addi	a5,a5,-172 # 100130 <led>
    11e4:	0007a703          	lw	a4,0(a5)
    11e8:	fec42783          	lw	a5,-20(s0)
    11ec:	00f707b3          	add	a5,a4,a5
    11f0:	00078023          	sb	zero,0(a5)
    11f4:	fec42783          	lw	a5,-20(s0)
    11f8:	00178793          	addi	a5,a5,1
    11fc:	fef42623          	sw	a5,-20(s0)
    1200:	fec42703          	lw	a4,-20(s0)
    1204:	00700793          	li	a5,7
    1208:	fce7fae3          	bgeu	a5,a4,11dc <initled+0x14>
    120c:	00000013          	nop
    1210:	00000013          	nop
    1214:	01c12403          	lw	s0,28(sp)
    1218:	02010113          	addi	sp,sp,32
    121c:	00008067          	ret

00001220 <ledon>:
    1220:	fe010113          	addi	sp,sp,-32
    1224:	00812e23          	sw	s0,28(sp)
    1228:	02010413          	addi	s0,sp,32
    122c:	fea42623          	sw	a0,-20(s0)
    1230:	000ff797          	auipc	a5,0xff
    1234:	f0078793          	addi	a5,a5,-256 # 100130 <led>
    1238:	0007a703          	lw	a4,0(a5)
    123c:	fec42783          	lw	a5,-20(s0)
    1240:	00f707b3          	add	a5,a4,a5
    1244:	00100713          	li	a4,1
    1248:	00e78023          	sb	a4,0(a5)
    124c:	00000013          	nop
    1250:	01c12403          	lw	s0,28(sp)
    1254:	02010113          	addi	sp,sp,32
    1258:	00008067          	ret

0000125c <ledoff>:
    125c:	fe010113          	addi	sp,sp,-32
    1260:	00812e23          	sw	s0,28(sp)
    1264:	02010413          	addi	s0,sp,32
    1268:	fea42623          	sw	a0,-20(s0)
    126c:	000ff797          	auipc	a5,0xff
    1270:	ec478793          	addi	a5,a5,-316 # 100130 <led>
    1274:	0007a703          	lw	a4,0(a5)
    1278:	fec42783          	lw	a5,-20(s0)
    127c:	00f707b3          	add	a5,a4,a5
    1280:	00078023          	sb	zero,0(a5)
    1284:	00000013          	nop
    1288:	01c12403          	lw	s0,28(sp)
    128c:	02010113          	addi	sp,sp,32
    1290:	00008067          	ret

00001294 <gettime>:
    1294:	ff010113          	addi	sp,sp,-16
    1298:	00812623          	sw	s0,12(sp)
    129c:	01010413          	addi	s0,sp,16
    12a0:	000ff797          	auipc	a5,0xff
    12a4:	e9478793          	addi	a5,a5,-364 # 100134 <clock>
    12a8:	0007a783          	lw	a5,0(a5)
    12ac:	0007a783          	lw	a5,0(a5)
    12b0:	00078513          	mv	a0,a5
    12b4:	00c12403          	lw	s0,12(sp)
    12b8:	01010113          	addi	sp,sp,16
    12bc:	00008067          	ret

000012c0 <puttime>:
    12c0:	f6010113          	addi	sp,sp,-160
    12c4:	08112e23          	sw	ra,156(sp)
    12c8:	08812c23          	sw	s0,152(sp)
    12cc:	0a010413          	addi	s0,sp,160
    12d0:	f6a42623          	sw	a0,-148(s0)
    12d4:	f7040793          	addi	a5,s0,-144
    12d8:	f6c42583          	lw	a1,-148(s0)
    12dc:	00078513          	mv	a0,a5
    12e0:	4b4000ef          	jal	ra,1794 <u2a>
    12e4:	f6c42783          	lw	a5,-148(s0)
    12e8:	0ff7f793          	andi	a5,a5,255
    12ec:	00f7f793          	andi	a5,a5,15
    12f0:	0ff7f793          	andi	a5,a5,255
    12f4:	03078793          	addi	a5,a5,48
    12f8:	0ff7f793          	andi	a5,a5,255
    12fc:	f6f40823          	sb	a5,-144(s0)
    1300:	f6c42783          	lw	a5,-148(s0)
    1304:	0047d793          	srli	a5,a5,0x4
    1308:	0ff7f793          	andi	a5,a5,255
    130c:	00f7f793          	andi	a5,a5,15
    1310:	0ff7f793          	andi	a5,a5,255
    1314:	03078793          	addi	a5,a5,48
    1318:	0ff7f793          	andi	a5,a5,255
    131c:	f6f408a3          	sb	a5,-143(s0)
    1320:	f6c42783          	lw	a5,-148(s0)
    1324:	0087d793          	srli	a5,a5,0x8
    1328:	0ff7f793          	andi	a5,a5,255
    132c:	00f7f793          	andi	a5,a5,15
    1330:	0ff7f793          	andi	a5,a5,255
    1334:	03078793          	addi	a5,a5,48
    1338:	0ff7f793          	andi	a5,a5,255
    133c:	f6f40923          	sb	a5,-142(s0)
    1340:	f6c42783          	lw	a5,-148(s0)
    1344:	00c7d793          	srli	a5,a5,0xc
    1348:	0ff7f793          	andi	a5,a5,255
    134c:	00f7f793          	andi	a5,a5,15
    1350:	0ff7f793          	andi	a5,a5,255
    1354:	03078793          	addi	a5,a5,48
    1358:	0ff7f793          	andi	a5,a5,255
    135c:	f6f409a3          	sb	a5,-141(s0)
    1360:	f6c42783          	lw	a5,-148(s0)
    1364:	0107d793          	srli	a5,a5,0x10
    1368:	0ff7f793          	andi	a5,a5,255
    136c:	00f7f793          	andi	a5,a5,15
    1370:	0ff7f793          	andi	a5,a5,255
    1374:	03078793          	addi	a5,a5,48
    1378:	0ff7f793          	andi	a5,a5,255
    137c:	f6f40a23          	sb	a5,-140(s0)
    1380:	f6c42783          	lw	a5,-148(s0)
    1384:	0147d793          	srli	a5,a5,0x14
    1388:	0ff7f793          	andi	a5,a5,255
    138c:	00f7f793          	andi	a5,a5,15
    1390:	0ff7f793          	andi	a5,a5,255
    1394:	03078793          	addi	a5,a5,48
    1398:	0ff7f793          	andi	a5,a5,255
    139c:	f6f40aa3          	sb	a5,-139(s0)
    13a0:	f7544783          	lbu	a5,-139(s0)
    13a4:	00078513          	mv	a0,a5
    13a8:	b1dff0ef          	jal	ra,ec4 <putch>
    13ac:	f7444783          	lbu	a5,-140(s0)
    13b0:	00078513          	mv	a0,a5
    13b4:	b11ff0ef          	jal	ra,ec4 <putch>
    13b8:	03a00513          	li	a0,58
    13bc:	b09ff0ef          	jal	ra,ec4 <putch>
    13c0:	f7344783          	lbu	a5,-141(s0)
    13c4:	00078513          	mv	a0,a5
    13c8:	afdff0ef          	jal	ra,ec4 <putch>
    13cc:	f7244783          	lbu	a5,-142(s0)
    13d0:	00078513          	mv	a0,a5
    13d4:	af1ff0ef          	jal	ra,ec4 <putch>
    13d8:	03a00513          	li	a0,58
    13dc:	ae9ff0ef          	jal	ra,ec4 <putch>
    13e0:	f7144783          	lbu	a5,-143(s0)
    13e4:	00078513          	mv	a0,a5
    13e8:	addff0ef          	jal	ra,ec4 <putch>
    13ec:	f7044783          	lbu	a5,-144(s0)
    13f0:	00078513          	mv	a0,a5
    13f4:	ad1ff0ef          	jal	ra,ec4 <putch>
    13f8:	00000013          	nop
    13fc:	09c12083          	lw	ra,156(sp)
    1400:	09812403          	lw	s0,152(sp)
    1404:	0a010113          	addi	sp,sp,160
    1408:	00008067          	ret

0000140c <strlen>:
    140c:	fd010113          	addi	sp,sp,-48
    1410:	02812623          	sw	s0,44(sp)
    1414:	03010413          	addi	s0,sp,48
    1418:	fca42e23          	sw	a0,-36(s0)
    141c:	fe042623          	sw	zero,-20(s0)
    1420:	0100006f          	j	1430 <strlen+0x24>
    1424:	fec42783          	lw	a5,-20(s0)
    1428:	00178793          	addi	a5,a5,1
    142c:	fef42623          	sw	a5,-20(s0)
    1430:	fdc42703          	lw	a4,-36(s0)
    1434:	fec42783          	lw	a5,-20(s0)
    1438:	00f707b3          	add	a5,a4,a5
    143c:	0007c783          	lbu	a5,0(a5)
    1440:	fe0792e3          	bnez	a5,1424 <strlen+0x18>
    1444:	fec42783          	lw	a5,-20(s0)
    1448:	00078513          	mv	a0,a5
    144c:	02c12403          	lw	s0,44(sp)
    1450:	03010113          	addi	sp,sp,48
    1454:	00008067          	ret

00001458 <strcmp>:
    1458:	fd010113          	addi	sp,sp,-48
    145c:	02812623          	sw	s0,44(sp)
    1460:	03010413          	addi	s0,sp,48
    1464:	fca42e23          	sw	a0,-36(s0)
    1468:	fcb42c23          	sw	a1,-40(s0)
    146c:	fdc42783          	lw	a5,-36(s0)
    1470:	fef42623          	sw	a5,-20(s0)
    1474:	fd842783          	lw	a5,-40(s0)
    1478:	fef42423          	sw	a5,-24(s0)
    147c:	01c0006f          	j	1498 <strcmp+0x40>
    1480:	fec42783          	lw	a5,-20(s0)
    1484:	00178793          	addi	a5,a5,1
    1488:	fef42623          	sw	a5,-20(s0)
    148c:	fe842783          	lw	a5,-24(s0)
    1490:	00178793          	addi	a5,a5,1
    1494:	fef42423          	sw	a5,-24(s0)
    1498:	fec42783          	lw	a5,-20(s0)
    149c:	0007c783          	lbu	a5,0(a5)
    14a0:	02078263          	beqz	a5,14c4 <strcmp+0x6c>
    14a4:	fe842783          	lw	a5,-24(s0)
    14a8:	0007c783          	lbu	a5,0(a5)
    14ac:	00078c63          	beqz	a5,14c4 <strcmp+0x6c>
    14b0:	fec42783          	lw	a5,-20(s0)
    14b4:	0007c703          	lbu	a4,0(a5)
    14b8:	fe842783          	lw	a5,-24(s0)
    14bc:	0007c783          	lbu	a5,0(a5)
    14c0:	fcf700e3          	beq	a4,a5,1480 <strcmp+0x28>
    14c4:	fec42783          	lw	a5,-20(s0)
    14c8:	0007c783          	lbu	a5,0(a5)
    14cc:	00078713          	mv	a4,a5
    14d0:	fe842783          	lw	a5,-24(s0)
    14d4:	0007c783          	lbu	a5,0(a5)
    14d8:	40f707b3          	sub	a5,a4,a5
    14dc:	00078513          	mv	a0,a5
    14e0:	02c12403          	lw	s0,44(sp)
    14e4:	03010113          	addi	sp,sp,48
    14e8:	00008067          	ret

000014ec <strncmp>:
    14ec:	fd010113          	addi	sp,sp,-48
    14f0:	02812623          	sw	s0,44(sp)
    14f4:	03010413          	addi	s0,sp,48
    14f8:	fca42e23          	sw	a0,-36(s0)
    14fc:	fcb42c23          	sw	a1,-40(s0)
    1500:	fcc42a23          	sw	a2,-44(s0)
    1504:	fe042623          	sw	zero,-20(s0)
    1508:	0340006f          	j	153c <strncmp+0x50>
    150c:	fdc42703          	lw	a4,-36(s0)
    1510:	fec42783          	lw	a5,-20(s0)
    1514:	00f707b3          	add	a5,a4,a5
    1518:	0007c703          	lbu	a4,0(a5)
    151c:	fd842683          	lw	a3,-40(s0)
    1520:	fec42783          	lw	a5,-20(s0)
    1524:	00f687b3          	add	a5,a3,a5
    1528:	0007c783          	lbu	a5,0(a5)
    152c:	02f71063          	bne	a4,a5,154c <strncmp+0x60>
    1530:	fec42783          	lw	a5,-20(s0)
    1534:	00178793          	addi	a5,a5,1
    1538:	fef42623          	sw	a5,-20(s0)
    153c:	fec42703          	lw	a4,-20(s0)
    1540:	fd442783          	lw	a5,-44(s0)
    1544:	fcf764e3          	bltu	a4,a5,150c <strncmp+0x20>
    1548:	0080006f          	j	1550 <strncmp+0x64>
    154c:	00000013          	nop
    1550:	fec42703          	lw	a4,-20(s0)
    1554:	fd442783          	lw	a5,-44(s0)
    1558:	00f71663          	bne	a4,a5,1564 <strncmp+0x78>
    155c:	00000793          	li	a5,0
    1560:	02c0006f          	j	158c <strncmp+0xa0>
    1564:	fdc42703          	lw	a4,-36(s0)
    1568:	fec42783          	lw	a5,-20(s0)
    156c:	00f707b3          	add	a5,a4,a5
    1570:	0007c783          	lbu	a5,0(a5)
    1574:	00078693          	mv	a3,a5
    1578:	fd842703          	lw	a4,-40(s0)
    157c:	fec42783          	lw	a5,-20(s0)
    1580:	00f707b3          	add	a5,a4,a5
    1584:	0007c783          	lbu	a5,0(a5)
    1588:	40f687b3          	sub	a5,a3,a5
    158c:	00078513          	mv	a0,a5
    1590:	02c12403          	lw	s0,44(sp)
    1594:	03010113          	addi	sp,sp,48
    1598:	00008067          	ret

0000159c <strcpy>:
    159c:	fe010113          	addi	sp,sp,-32
    15a0:	00812e23          	sw	s0,28(sp)
    15a4:	02010413          	addi	s0,sp,32
    15a8:	fea42623          	sw	a0,-20(s0)
    15ac:	feb42423          	sw	a1,-24(s0)
    15b0:	0240006f          	j	15d4 <strcpy+0x38>
    15b4:	fe842703          	lw	a4,-24(s0)
    15b8:	00170793          	addi	a5,a4,1
    15bc:	fef42423          	sw	a5,-24(s0)
    15c0:	fec42783          	lw	a5,-20(s0)
    15c4:	00178693          	addi	a3,a5,1
    15c8:	fed42623          	sw	a3,-20(s0)
    15cc:	00074703          	lbu	a4,0(a4)
    15d0:	00e78023          	sb	a4,0(a5)
    15d4:	fe842783          	lw	a5,-24(s0)
    15d8:	0007c783          	lbu	a5,0(a5)
    15dc:	fc079ce3          	bnez	a5,15b4 <strcpy+0x18>
    15e0:	fec42783          	lw	a5,-20(s0)
    15e4:	00078023          	sb	zero,0(a5)
    15e8:	00000013          	nop
    15ec:	01c12403          	lw	s0,28(sp)
    15f0:	02010113          	addi	sp,sp,32
    15f4:	00008067          	ret

000015f8 <strncpy>:
    15f8:	fd010113          	addi	sp,sp,-48
    15fc:	02812623          	sw	s0,44(sp)
    1600:	03010413          	addi	s0,sp,48
    1604:	fca42e23          	sw	a0,-36(s0)
    1608:	fcb42c23          	sw	a1,-40(s0)
    160c:	fcc42a23          	sw	a2,-44(s0)
    1610:	fe042623          	sw	zero,-20(s0)
    1614:	fe042623          	sw	zero,-20(s0)
    1618:	0300006f          	j	1648 <strncpy+0x50>
    161c:	fd842703          	lw	a4,-40(s0)
    1620:	fec42783          	lw	a5,-20(s0)
    1624:	00f70733          	add	a4,a4,a5
    1628:	fdc42683          	lw	a3,-36(s0)
    162c:	fec42783          	lw	a5,-20(s0)
    1630:	00f687b3          	add	a5,a3,a5
    1634:	00074703          	lbu	a4,0(a4)
    1638:	00e78023          	sb	a4,0(a5)
    163c:	fec42783          	lw	a5,-20(s0)
    1640:	00178793          	addi	a5,a5,1
    1644:	fef42623          	sw	a5,-20(s0)
    1648:	fec42703          	lw	a4,-20(s0)
    164c:	fd442783          	lw	a5,-44(s0)
    1650:	fcf766e3          	bltu	a4,a5,161c <strncpy+0x24>
    1654:	fdc42703          	lw	a4,-36(s0)
    1658:	fec42783          	lw	a5,-20(s0)
    165c:	00f707b3          	add	a5,a4,a5
    1660:	00078023          	sb	zero,0(a5)
    1664:	00000013          	nop
    1668:	02c12403          	lw	s0,44(sp)
    166c:	03010113          	addi	sp,sp,48
    1670:	00008067          	ret

00001674 <a2u>:
    1674:	fd010113          	addi	sp,sp,-48
    1678:	02112623          	sw	ra,44(sp)
    167c:	02812423          	sw	s0,40(sp)
    1680:	03010413          	addi	s0,sp,48
    1684:	fca42e23          	sw	a0,-36(s0)
    1688:	fdc42503          	lw	a0,-36(s0)
    168c:	d81ff0ef          	jal	ra,140c <strlen>
    1690:	fea42223          	sw	a0,-28(s0)
    1694:	fe042623          	sw	zero,-20(s0)
    1698:	fe042423          	sw	zero,-24(s0)
    169c:	0740006f          	j	1710 <a2u+0x9c>
    16a0:	fdc42703          	lw	a4,-36(s0)
    16a4:	fe842783          	lw	a5,-24(s0)
    16a8:	00f707b3          	add	a5,a4,a5
    16ac:	0007c703          	lbu	a4,0(a5)
    16b0:	02f00793          	li	a5,47
    16b4:	04e7f863          	bgeu	a5,a4,1704 <a2u+0x90>
    16b8:	fdc42703          	lw	a4,-36(s0)
    16bc:	fe842783          	lw	a5,-24(s0)
    16c0:	00f707b3          	add	a5,a4,a5
    16c4:	0007c703          	lbu	a4,0(a5)
    16c8:	03900793          	li	a5,57
    16cc:	02e7ec63          	bltu	a5,a4,1704 <a2u+0x90>
    16d0:	fec42703          	lw	a4,-20(s0)
    16d4:	00070793          	mv	a5,a4
    16d8:	00279793          	slli	a5,a5,0x2
    16dc:	00e787b3          	add	a5,a5,a4
    16e0:	00179793          	slli	a5,a5,0x1
    16e4:	00078693          	mv	a3,a5
    16e8:	fdc42703          	lw	a4,-36(s0)
    16ec:	fe842783          	lw	a5,-24(s0)
    16f0:	00f707b3          	add	a5,a4,a5
    16f4:	0007c783          	lbu	a5,0(a5)
    16f8:	00f687b3          	add	a5,a3,a5
    16fc:	fd078793          	addi	a5,a5,-48
    1700:	fef42623          	sw	a5,-20(s0)
    1704:	fe842783          	lw	a5,-24(s0)
    1708:	00178793          	addi	a5,a5,1
    170c:	fef42423          	sw	a5,-24(s0)
    1710:	fe842703          	lw	a4,-24(s0)
    1714:	fe442783          	lw	a5,-28(s0)
    1718:	f8f764e3          	bltu	a4,a5,16a0 <a2u+0x2c>
    171c:	fec42783          	lw	a5,-20(s0)
    1720:	00078513          	mv	a0,a5
    1724:	02c12083          	lw	ra,44(sp)
    1728:	02812403          	lw	s0,40(sp)
    172c:	03010113          	addi	sp,sp,48
    1730:	00008067          	ret

00001734 <a2i>:
    1734:	fe010113          	addi	sp,sp,-32
    1738:	00112e23          	sw	ra,28(sp)
    173c:	00812c23          	sw	s0,24(sp)
    1740:	02010413          	addi	s0,sp,32
    1744:	fea42623          	sw	a0,-20(s0)
    1748:	fec42783          	lw	a5,-20(s0)
    174c:	0007c703          	lbu	a4,0(a5)
    1750:	02d00793          	li	a5,45
    1754:	02f71063          	bne	a4,a5,1774 <a2i+0x40>
    1758:	fec42783          	lw	a5,-20(s0)
    175c:	00178793          	addi	a5,a5,1
    1760:	00078513          	mv	a0,a5
    1764:	f11ff0ef          	jal	ra,1674 <a2u>
    1768:	00050793          	mv	a5,a0
    176c:	40f007b3          	neg	a5,a5
    1770:	0100006f          	j	1780 <a2i+0x4c>
    1774:	fec42503          	lw	a0,-20(s0)
    1778:	efdff0ef          	jal	ra,1674 <a2u>
    177c:	00050793          	mv	a5,a0
    1780:	00078513          	mv	a0,a5
    1784:	01c12083          	lw	ra,28(sp)
    1788:	01812403          	lw	s0,24(sp)
    178c:	02010113          	addi	sp,sp,32
    1790:	00008067          	ret

00001794 <u2a>:
    1794:	fd010113          	addi	sp,sp,-48
    1798:	02112623          	sw	ra,44(sp)
    179c:	02812423          	sw	s0,40(sp)
    17a0:	03010413          	addi	s0,sp,48
    17a4:	fca42e23          	sw	a0,-36(s0)
    17a8:	fcb42c23          	sw	a1,-40(s0)
    17ac:	fd842783          	lw	a5,-40(s0)
    17b0:	02079063          	bnez	a5,17d0 <u2a+0x3c>
    17b4:	fdc42783          	lw	a5,-36(s0)
    17b8:	03000713          	li	a4,48
    17bc:	00e78023          	sb	a4,0(a5)
    17c0:	fdc42783          	lw	a5,-36(s0)
    17c4:	00178793          	addi	a5,a5,1
    17c8:	00078023          	sb	zero,0(a5)
    17cc:	0f40006f          	j	18c0 <u2a+0x12c>
    17d0:	fe042623          	sw	zero,-20(s0)
    17d4:	0540006f          	j	1828 <u2a+0x94>
    17d8:	fd842783          	lw	a5,-40(s0)
    17dc:	00a00593          	li	a1,10
    17e0:	00078513          	mv	a0,a5
    17e4:	bd0ff0ef          	jal	ra,bb4 <__umodsi3>
    17e8:	00050793          	mv	a5,a0
    17ec:	0ff7f713          	andi	a4,a5,255
    17f0:	fec42783          	lw	a5,-20(s0)
    17f4:	00178693          	addi	a3,a5,1
    17f8:	fed42623          	sw	a3,-20(s0)
    17fc:	fdc42683          	lw	a3,-36(s0)
    1800:	00f687b3          	add	a5,a3,a5
    1804:	03070713          	addi	a4,a4,48
    1808:	0ff77713          	andi	a4,a4,255
    180c:	00e78023          	sb	a4,0(a5)
    1810:	fd842783          	lw	a5,-40(s0)
    1814:	00a00593          	li	a1,10
    1818:	00078513          	mv	a0,a5
    181c:	c54ff0ef          	jal	ra,c70 <__udivsi3>
    1820:	00050793          	mv	a5,a0
    1824:	fcf42c23          	sw	a5,-40(s0)
    1828:	fd842783          	lw	a5,-40(s0)
    182c:	fa0796e3          	bnez	a5,17d8 <u2a+0x44>
    1830:	fdc42703          	lw	a4,-36(s0)
    1834:	fec42783          	lw	a5,-20(s0)
    1838:	00f707b3          	add	a5,a4,a5
    183c:	00078023          	sb	zero,0(a5)
    1840:	fe042423          	sw	zero,-24(s0)
    1844:	fec42783          	lw	a5,-20(s0)
    1848:	fff78793          	addi	a5,a5,-1
    184c:	fef42223          	sw	a5,-28(s0)
    1850:	0640006f          	j	18b4 <u2a+0x120>
    1854:	fdc42703          	lw	a4,-36(s0)
    1858:	fe842783          	lw	a5,-24(s0)
    185c:	00f707b3          	add	a5,a4,a5
    1860:	0007c783          	lbu	a5,0(a5)
    1864:	fef401a3          	sb	a5,-29(s0)
    1868:	fdc42703          	lw	a4,-36(s0)
    186c:	fe442783          	lw	a5,-28(s0)
    1870:	00f70733          	add	a4,a4,a5
    1874:	fdc42683          	lw	a3,-36(s0)
    1878:	fe842783          	lw	a5,-24(s0)
    187c:	00f687b3          	add	a5,a3,a5
    1880:	00074703          	lbu	a4,0(a4)
    1884:	00e78023          	sb	a4,0(a5)
    1888:	fdc42703          	lw	a4,-36(s0)
    188c:	fe442783          	lw	a5,-28(s0)
    1890:	00f707b3          	add	a5,a4,a5
    1894:	fe344703          	lbu	a4,-29(s0)
    1898:	00e78023          	sb	a4,0(a5)
    189c:	fe842783          	lw	a5,-24(s0)
    18a0:	00178793          	addi	a5,a5,1
    18a4:	fef42423          	sw	a5,-24(s0)
    18a8:	fe442783          	lw	a5,-28(s0)
    18ac:	fff78793          	addi	a5,a5,-1
    18b0:	fef42223          	sw	a5,-28(s0)
    18b4:	fe842703          	lw	a4,-24(s0)
    18b8:	fe442783          	lw	a5,-28(s0)
    18bc:	f8f76ce3          	bltu	a4,a5,1854 <u2a+0xc0>
    18c0:	02c12083          	lw	ra,44(sp)
    18c4:	02812403          	lw	s0,40(sp)
    18c8:	03010113          	addi	sp,sp,48
    18cc:	00008067          	ret

000018d0 <i2a>:
    18d0:	fe010113          	addi	sp,sp,-32
    18d4:	00112e23          	sw	ra,28(sp)
    18d8:	00812c23          	sw	s0,24(sp)
    18dc:	02010413          	addi	s0,sp,32
    18e0:	fea42623          	sw	a0,-20(s0)
    18e4:	feb42423          	sw	a1,-24(s0)
    18e8:	fe842783          	lw	a5,-24(s0)
    18ec:	0007cc63          	bltz	a5,1904 <i2a+0x34>
    18f0:	fe842783          	lw	a5,-24(s0)
    18f4:	00078593          	mv	a1,a5
    18f8:	fec42503          	lw	a0,-20(s0)
    18fc:	e99ff0ef          	jal	ra,1794 <u2a>
    1900:	02c0006f          	j	192c <i2a+0x5c>
    1904:	fec42783          	lw	a5,-20(s0)
    1908:	02d00713          	li	a4,45
    190c:	00e78023          	sb	a4,0(a5)
    1910:	fec42783          	lw	a5,-20(s0)
    1914:	00178713          	addi	a4,a5,1
    1918:	fe842783          	lw	a5,-24(s0)
    191c:	40f007b3          	neg	a5,a5
    1920:	00078593          	mv	a1,a5
    1924:	00070513          	mv	a0,a4
    1928:	e6dff0ef          	jal	ra,1794 <u2a>
    192c:	00000013          	nop
    1930:	01c12083          	lw	ra,28(sp)
    1934:	01812403          	lw	s0,24(sp)
    1938:	02010113          	addi	sp,sp,32
    193c:	00008067          	ret
